; Function Attrs: nounwind uwtable
define i32 @CORD_vfprintf(ptr noundef %0, ptr noundef %1, ptr noundef %2) local_unnamed_addr #0 {
  %4 = alloca ptr, align 8
  call void @llvm.lifetime.start.p0(i64 8, ptr nonnull %4) #11
  store ptr null, ptr %4, align 8, !tbaa !31
  %5 = call i32 @CORD_vsprintf(ptr noundef nonnull %4, ptr noundef %1, ptr noundef %2)
  %6 = icmp sgt i32 %5, 0
  br i1 %6, label %7, label %10

7:                                                ; preds = %3
  %8 = load ptr, ptr %4, align 8, !tbaa !31
  %9 = tail call i32 @CORD_put(ptr noundef %8, ptr noundef %0) #11
  br label %10

10:                                               ; preds = %7, %3
  call void @llvm.lifetime.end.p0(i64 8, ptr nonnull %4) #11
  ret i32 %5
}